; Function Attrs: nofree norecurse nosync nounwind memory(argmem: readwrite) uwtable
define void @lv_group_set_refocus_policy(ptr noundef %0, i32 noundef %1) local_unnamed_addr #5 {
  %.not = icmp eq ptr %0, null
  br i1 %.not, label %.preheader, label %3

.preheader:                                       ; preds = %2, %.preheader
  br label %.preheader

3:                                                ; preds = %2
  %4 = trunc i32 %1 to i8
  %5 = getelementptr inbounds nuw i8, ptr %0, i64 56
  %6 = load i8, ptr %5, align 8
  %7 = shl i8 %4, 2
  %8 = and i8 %7, 4
  %9 = and i8 %6, -5
  %10 = or disjoint i8 %9, %8
  store i8 %10, ptr %5, align 8
  ret void
}